; Function Attrs: mustprogress uwtable
define hidden void @_Z16create_test_fileRKNSt7__cxx1112basic_stringIcSt11char_traitsIcESaIcEEE(ptr nocapture noundef nonnull readonly align 8 dereferenceable(32) %0) local_unnamed_addr #4 personality ptr @__gxx_personality_v0 {
  %2 = load ptr, ptr %0, align 8, !tbaa !14
  %3 = tail call noalias ptr @fopen(ptr noundef %2, ptr noundef nonnull @.str.3)
  %4 = load atomic i8, ptr @_ZGVZN5boost6nowide4test8test_monEvE8instance acquire, align 8
  %5 = icmp eq i8 %4, 0
  br i1 %5, label %6, label %_ZN5boost6nowide4test8test_monEv.exit, !prof !33

6:                                                ; preds = %1
  %7 = tail call i32 @__cxa_guard_acquire(ptr nonnull @_ZGVZN5boost6nowide4test8test_monEvE8instance) #22
  %.not.i = icmp eq i32 %7, 0
  br i1 %.not.i, label %_ZN5boost6nowide4test8test_monEv.exit, label %8

8:                                                ; preds = %6
  store ptr getelementptr inbounds nuw (i8, ptr @_ZZN5boost6nowide4test8test_monEvE8instance, i64 16), ptr @_ZZN5boost6nowide4test8test_monEvE8instance, align 8, !tbaa !10
  store i64 0, ptr getelementptr inbounds nuw (i8, ptr @_ZZN5boost6nowide4test8test_monEvE8instance, i64 8), align 8, !tbaa !17
  store i8 0, ptr getelementptr inbounds nuw (i8, ptr @_ZZN5boost6nowide4test8test_monEvE8instance, i64 16), align 8, !tbaa !16
  %9 = tail call i32 @__cxa_atexit(ptr nonnull @_ZN5boost6nowide4test12test_monitorD2Ev, ptr nonnull @_ZZN5boost6nowide4test8test_monEvE8instance, ptr nonnull @__dso_handle) #22
  tail call void @__cxa_guard_release(ptr nonnull @_ZGVZN5boost6nowide4test8test_monEvE8instance) #22
  br label %_ZN5boost6nowide4test8test_monEv.exit

_ZN5boost6nowide4test8test_monEv.exit:            ; preds = %1, %6, %8
  %.not = icmp eq ptr %3, null
  br i1 %.not, label %10, label %11

10:                                               ; preds = %_ZN5boost6nowide4test8test_monEv.exit
  tail call void @_ZN5boost6nowide4test11test_failedEPKcS3_iS3_(ptr noundef nonnull @.str.4, ptr noundef nonnull @.str.5, i32 noundef 39, ptr noundef nonnull @__FUNCTION__._Z16create_test_fileRKNSt7__cxx1112basic_stringIcSt11char_traitsIcESaIcEEE)
  br label %11

11:                                               ; preds = %10, %_ZN5boost6nowide4test8test_monEv.exit
  %12 = load atomic i8, ptr @_ZGVZN5boost6nowide4test8test_monEvE8instance acquire, align 8
  %13 = icmp eq i8 %12, 0
  br i1 %13, label %14, label %_ZN5boost6nowide4test8test_monEv.exit5, !prof !33

14:                                               ; preds = %11
  %15 = tail call i32 @__cxa_guard_acquire(ptr nonnull @_ZGVZN5boost6nowide4test8test_monEvE8instance) #22
  %.not.i4 = icmp eq i32 %15, 0
  br i1 %.not.i4, label %_ZN5boost6nowide4test8test_monEv.exit5, label %16

16:                                               ; preds = %14
  store ptr getelementptr inbounds nuw (i8, ptr @_ZZN5boost6nowide4test8test_monEvE8instance, i64 16), ptr @_ZZN5boost6nowide4test8test_monEvE8instance, align 8, !tbaa !10
  store i64 0, ptr getelementptr inbounds nuw (i8, ptr @_ZZN5boost6nowide4test8test_monEvE8instance, i64 8), align 8, !tbaa !17
  store i8 0, ptr getelementptr inbounds nuw (i8, ptr @_ZZN5boost6nowide4test8test_monEvE8instance, i64 16), align 8, !tbaa !16
  %17 = tail call i32 @__cxa_atexit(ptr nonnull @_ZN5boost6nowide4test12test_monitorD2Ev, ptr nonnull @_ZZN5boost6nowide4test8test_monEvE8instance, ptr nonnull @__dso_handle) #22
  tail call void @__cxa_guard_release(ptr nonnull @_ZGVZN5boost6nowide4test8test_monEvE8instance) #22
  br label %_ZN5boost6nowide4test8test_monEv.exit5

_ZN5boost6nowide4test8test_monEv.exit5:           ; preds = %11, %14, %16
  %18 = tail call i32 @fputs(ptr noundef nonnull @.str.6, ptr noundef %3)
  %19 = icmp sgt i32 %18, -1
  br i1 %19, label %21, label %20

20:                                               ; preds = %_ZN5boost6nowide4test8test_monEv.exit5
  tail call void @_ZN5boost6nowide4test11test_failedEPKcS3_iS3_(ptr noundef nonnull @.str.7, ptr noundef nonnull @.str.5, i32 noundef 40, ptr noundef nonnull @__FUNCTION__._Z16create_test_fileRKNSt7__cxx1112basic_stringIcSt11char_traitsIcESaIcEEE)
  br label %21

21:                                               ; preds = %_ZN5boost6nowide4test8test_monEv.exit5, %20
  %22 = tail call i32 @fclose(ptr noundef %3)
  ret void
}